ccopy_reg
_reconstructor
p0
(csklearn.impute
SimpleImputer
p1
c__builtin__
object
p2
Ntp3
Rp4
(dp5
S'verbose'
p6
I0
sS'fill_value'
p7
NsS'strategy'
p8
S'most_frequent'
p9
sS'_sklearn_version'
p10
S'0.20.4'
p11
sS'statistics_'
p12
cnumpy.core.multiarray
_reconstruct
p13
(cnumpy
ndarray
p14
(I0
tp15
S'b'
p16
tp17
Rp18
(I1
(I122
tp19
cnumpy
dtype
p20
(S'O8'
p21
I0
I1
tp22
Rp23
(I3
S'|'
p24
NNNI-1
I-1
I63
tp25
bI00
(lp26
F2000.0
aF32.426259022
aF0.46448579
aF-41.482148663
aF0.16
aF0.007791386
aF0.00779244
aF0.0
aF-5.966732384
aF1.999
aF0.337975355
aF6.934372678
aF0.08
aF0.026112754
aF0.0
aF-447.472830735
aF0.0
aF0.010073246
aF0.0
aF0.0
aF0.007388534
aF0.0
aF-2.449489743
aF0.0495
aF1e-09
aF2.449489743
aF0.157
aF0.0
aF2.449489743
aF3.235668136
aF0.0
aF0.0
aF0.853242321
aF0.0
aF0.0
aF1.52
aF0.002431423
aF1.0
aF0.0
aF0.0
aF0.125
aF0.5
aF0.5
aF0.5
aF0.875
aF0.886
aF0.23
aF0.18
aF23.128850019
aF1.83
aF0.0
aF1.5707963267949
aF0.0124757357633333
aF3.14159265358979
aF0.0482920768396839
aF3.14159265358979
aF0.141613588621088
aF0.0294818807137768
aF0.00787228678703488
aF0.0
aF0.00522195638554812
aF0.00511179718484873
aF0.00951113658111621
aF0.00205449130539679
aF0.00926958311886856
aF0.111834780986276
aF1.0
aF0.0
aF1.0
aF0.00511179718484873
aF1.0
aF0.00511179718484873
aF0.362
aF0.644
aF0.838
aF0.986754154783766
aF0.01
aF0.511046
aF1.0
aF2000.0
aF2.5e-07
aF0.0
aF8.85445616653216
aF0.19470800174869
aF0.0
aF1.0
aF0.00697199538433915
aF1.3536196899896
aF0.00347574526265805
aF1.3536196899896
aF0.0453144125267216
aF2.0
aF1.0
aF5.0
aF14.97
aF102.0
aF0.0284773043544335
aF101.0
aF0.0284619132968173
aF3.76763663572994e-05
aF1.0
aF1.0
aF1.0
aF0.0
aF0.0
aF0.0
aF8.3094623916682e-07
aF0.0
aF0.282795910873287
aF0.0094124832548203
aF1.0
aF0.0350059344182545
aF1.0
aF0.236675020999443
aNaNaNaNaNaNaNaNatp27
bsS'copy'
p28
I01
sS'missing_values'
p29
Fnan
sb.